target datalayout = "e-m:e-p270:32:32-p271:32:32-p272:64:64-i64:64-i128:128-f80:128-n8:16:32:64-S128"
target triple = "x86_64-pc-linux-gnu"

%struct.ParseStackFnStruct = type { ptr, i32, i32 }
%struct.ParseStackOpStruct = type { ptr, i32, i32 }

@.str = private unnamed_addr constant [47 x i8] c"Parse_StackFnPush(): Stack size is too small!\0A\00", align 1
@.str.1 = private unnamed_addr constant [67 x i8] c"Parse_StackFnPush(): Trying to extract data from the empty stack!\0A\00", align 1
@.str.2 = private unnamed_addr constant [47 x i8] c"Parse_StackOpPush(): Stack size is too small!\0A\00", align 1
@.str.3 = private unnamed_addr constant [67 x i8] c"Parse_StackOpPush(): Trying to extract data from the empty stack!\0A\00", align 1

; Function Attrs: nounwind uwtable
define ptr @Parse_StackFnStart(i32 noundef %0) #0 {
  %2 = alloca i32, align 4
  %3 = alloca ptr, align 8
  store i32 %0, ptr %2, align 4, !tbaa !3
  call void @llvm.lifetime.start.p0(i64 8, ptr %3) #6
  %4 = call noalias ptr @malloc(i64 noundef 16) #7
  store ptr %4, ptr %3, align 8, !tbaa !7
  %5 = load ptr, ptr %3, align 8, !tbaa !7
  call void @llvm.memset.p0.i64(ptr align 8 %5, i8 0, i64 16, i1 false)
  %6 = load i32, ptr %2, align 4, !tbaa !3
  %7 = sext i32 %6 to i64
  %8 = mul i64 8, %7
  %9 = call noalias ptr @malloc(i64 noundef %8) #7
  %10 = load ptr, ptr %3, align 8, !tbaa !7
  %11 = getelementptr inbounds nuw %struct.ParseStackFnStruct, ptr %10, i32 0, i32 0
  store ptr %9, ptr %11, align 8, !tbaa !10
  %12 = load i32, ptr %2, align 4, !tbaa !3
  %13 = load ptr, ptr %3, align 8, !tbaa !7
  %14 = getelementptr inbounds nuw %struct.ParseStackFnStruct, ptr %13, i32 0, i32 2
  store i32 %12, ptr %14, align 4, !tbaa !12
  %15 = load ptr, ptr %3, align 8, !tbaa !7
  call void @llvm.lifetime.end.p0(i64 8, ptr %3) #6
  ret ptr %15
}

; Function Attrs: nocallback nofree nosync nounwind willreturn memory(argmem: readwrite)
declare void @llvm.lifetime.start.p0(i64 immarg, ptr captures(none)) #1

; Function Attrs: nounwind allocsize(0)
declare noalias ptr @malloc(i64 noundef) #2

; Function Attrs: nocallback nofree nounwind willreturn memory(argmem: write)
declare void @llvm.memset.p0.i64(ptr writeonly captures(none), i8, i64, i1 immarg) #3

; Function Attrs: nocallback nofree nosync nounwind willreturn memory(argmem: readwrite)
declare void @llvm.lifetime.end.p0(i64 immarg, ptr captures(none)) #1

; Function Attrs: nounwind uwtable
define i32 @Parse_StackFnIsEmpty(ptr noundef %0) #0 {
  %2 = alloca ptr, align 8
  store ptr %0, ptr %2, align 8, !tbaa !7
  %3 = load ptr, ptr %2, align 8, !tbaa !7
  %4 = getelementptr inbounds nuw %struct.ParseStackFnStruct, ptr %3, i32 0, i32 1
  %5 = load i32, ptr %4, align 8, !tbaa !13
  %6 = icmp eq i32 %5, 0
  %7 = zext i1 %6 to i32
  ret i32 %7
}

; Function Attrs: nounwind uwtable
define void @Parse_StackFnPush(ptr noundef %0, ptr noundef %1) #0 {
  %3 = alloca ptr, align 8
  %4 = alloca ptr, align 8
  store ptr %0, ptr %3, align 8, !tbaa !7
  store ptr %1, ptr %4, align 8, !tbaa !14
  %5 = load ptr, ptr %3, align 8, !tbaa !7
  %6 = getelementptr inbounds nuw %struct.ParseStackFnStruct, ptr %5, i32 0, i32 1
  %7 = load i32, ptr %6, align 8, !tbaa !13
  %8 = load ptr, ptr %3, align 8, !tbaa !7
  %9 = getelementptr inbounds nuw %struct.ParseStackFnStruct, ptr %8, i32 0, i32 2
  %10 = load i32, ptr %9, align 4, !tbaa !12
  %11 = icmp sge i32 %7, %10
  br i1 %11, label %12, label %14

12:                                               ; preds = %2
  %13 = call i32 (ptr, ...) @printf(ptr noundef @.str)
  br label %25

14:                                               ; preds = %2
  %15 = load ptr, ptr %4, align 8, !tbaa !14
  %16 = load ptr, ptr %3, align 8, !tbaa !7
  %17 = getelementptr inbounds nuw %struct.ParseStackFnStruct, ptr %16, i32 0, i32 0
  %18 = load ptr, ptr %17, align 8, !tbaa !10
  %19 = load ptr, ptr %3, align 8, !tbaa !7
  %20 = getelementptr inbounds nuw %struct.ParseStackFnStruct, ptr %19, i32 0, i32 1
  %21 = load i32, ptr %20, align 8, !tbaa !13
  %22 = add nsw i32 %21, 1
  store i32 %22, ptr %20, align 8, !tbaa !13
  %23 = sext i32 %21 to i64
  %24 = getelementptr inbounds ptr, ptr %18, i64 %23
  store ptr %15, ptr %24, align 8, !tbaa !14
  br label %25

25:                                               ; preds = %14, %12
  ret void
}

declare i32 @printf(ptr noundef, ...) #4

; Function Attrs: nounwind uwtable
define ptr @Parse_StackFnPop(ptr noundef %0) #0 {
  %2 = alloca ptr, align 8
  %3 = alloca ptr, align 8
  store ptr %0, ptr %3, align 8, !tbaa !7
  %4 = load ptr, ptr %3, align 8, !tbaa !7
  %5 = getelementptr inbounds nuw %struct.ParseStackFnStruct, ptr %4, i32 0, i32 1
  %6 = load i32, ptr %5, align 8, !tbaa !13
  %7 = icmp eq i32 %6, 0
  br i1 %7, label %8, label %10

8:                                                ; preds = %1
  %9 = call i32 (ptr, ...) @printf(ptr noundef @.str.1)
  store ptr null, ptr %2, align 8
  br label %21

10:                                               ; preds = %1
  %11 = load ptr, ptr %3, align 8, !tbaa !7
  %12 = getelementptr inbounds nuw %struct.ParseStackFnStruct, ptr %11, i32 0, i32 0
  %13 = load ptr, ptr %12, align 8, !tbaa !10
  %14 = load ptr, ptr %3, align 8, !tbaa !7
  %15 = getelementptr inbounds nuw %struct.ParseStackFnStruct, ptr %14, i32 0, i32 1
  %16 = load i32, ptr %15, align 8, !tbaa !13
  %17 = add nsw i32 %16, -1
  store i32 %17, ptr %15, align 8, !tbaa !13
  %18 = sext i32 %17 to i64
  %19 = getelementptr inbounds ptr, ptr %13, i64 %18
  %20 = load ptr, ptr %19, align 8, !tbaa !14
  store ptr %20, ptr %2, align 8
  br label %21

21:                                               ; preds = %10, %8
  %22 = load ptr, ptr %2, align 8
  ret ptr %22
}

; Function Attrs: nounwind uwtable
define void @Parse_StackFnFree(ptr noundef %0) #0 {
  %2 = alloca ptr, align 8
  store ptr %0, ptr %2, align 8, !tbaa !7
  %3 = load ptr, ptr %2, align 8, !tbaa !7
  %4 = getelementptr inbounds nuw %struct.ParseStackFnStruct, ptr %3, i32 0, i32 0
  %5 = load ptr, ptr %4, align 8, !tbaa !10
  %6 = icmp ne ptr %5, null
  br i1 %6, label %7, label %13

7:                                                ; preds = %1
  %8 = load ptr, ptr %2, align 8, !tbaa !7
  %9 = getelementptr inbounds nuw %struct.ParseStackFnStruct, ptr %8, i32 0, i32 0
  %10 = load ptr, ptr %9, align 8, !tbaa !10
  call void @free(ptr noundef %10) #6
  %11 = load ptr, ptr %2, align 8, !tbaa !7
  %12 = getelementptr inbounds nuw %struct.ParseStackFnStruct, ptr %11, i32 0, i32 0
  store ptr null, ptr %12, align 8, !tbaa !10
  br label %14

13:                                               ; preds = %1
  br label %14

14:                                               ; preds = %13, %7
  %15 = load ptr, ptr %2, align 8, !tbaa !7
  %16 = icmp ne ptr %15, null
  br i1 %16, label %17, label %19

17:                                               ; preds = %14
  %18 = load ptr, ptr %2, align 8, !tbaa !7
  call void @free(ptr noundef %18) #6
  store ptr null, ptr %2, align 8, !tbaa !7
  br label %20

19:                                               ; preds = %14
  br label %20

20:                                               ; preds = %19, %17
  ret void
}

; Function Attrs: nounwind
declare void @free(ptr noundef) #5

; Function Attrs: nounwind uwtable
define ptr @Parse_StackOpStart(i32 noundef %0) #0 {
  %2 = alloca i32, align 4
  %3 = alloca ptr, align 8
  store i32 %0, ptr %2, align 4, !tbaa !3
  call void @llvm.lifetime.start.p0(i64 8, ptr %3) #6
  %4 = call noalias ptr @malloc(i64 noundef 16) #7
  store ptr %4, ptr %3, align 8, !tbaa !15
  %5 = load ptr, ptr %3, align 8, !tbaa !15
  call void @llvm.memset.p0.i64(ptr align 8 %5, i8 0, i64 16, i1 false)
  %6 = load i32, ptr %2, align 4, !tbaa !3
  %7 = sext i32 %6 to i64
  %8 = mul i64 4, %7
  %9 = call noalias ptr @malloc(i64 noundef %8) #7
  %10 = load ptr, ptr %3, align 8, !tbaa !15
  %11 = getelementptr inbounds nuw %struct.ParseStackOpStruct, ptr %10, i32 0, i32 0
  store ptr %9, ptr %11, align 8, !tbaa !17
  %12 = load i32, ptr %2, align 4, !tbaa !3
  %13 = load ptr, ptr %3, align 8, !tbaa !15
  %14 = getelementptr inbounds nuw %struct.ParseStackOpStruct, ptr %13, i32 0, i32 2
  store i32 %12, ptr %14, align 4, !tbaa !20
  %15 = load ptr, ptr %3, align 8, !tbaa !15
  call void @llvm.lifetime.end.p0(i64 8, ptr %3) #6
  ret ptr %15
}

; Function Attrs: nounwind uwtable
define i32 @Parse_StackOpIsEmpty(ptr noundef %0) #0 {
  %2 = alloca ptr, align 8
  store ptr %0, ptr %2, align 8, !tbaa !15
  %3 = load ptr, ptr %2, align 8, !tbaa !15
  %4 = getelementptr inbounds nuw %struct.ParseStackOpStruct, ptr %3, i32 0, i32 1
  %5 = load i32, ptr %4, align 8, !tbaa !21
  %6 = icmp eq i32 %5, 0
  %7 = zext i1 %6 to i32
  ret i32 %7
}

; Function Attrs: nounwind uwtable
define void @Parse_StackOpPush(ptr noundef %0, i32 noundef %1) #0 {
  %3 = alloca ptr, align 8
  %4 = alloca i32, align 4
  store ptr %0, ptr %3, align 8, !tbaa !15
  store i32 %1, ptr %4, align 4, !tbaa !3
  %5 = load ptr, ptr %3, align 8, !tbaa !15
  %6 = getelementptr inbounds nuw %struct.ParseStackOpStruct, ptr %5, i32 0, i32 1
  %7 = load i32, ptr %6, align 8, !tbaa !21
  %8 = load ptr, ptr %3, align 8, !tbaa !15
  %9 = getelementptr inbounds nuw %struct.ParseStackOpStruct, ptr %8, i32 0, i32 2
  %10 = load i32, ptr %9, align 4, !tbaa !20
  %11 = icmp sge i32 %7, %10
  br i1 %11, label %12, label %14

12:                                               ; preds = %2
  %13 = call i32 (ptr, ...) @printf(ptr noundef @.str.2)
  br label %25

14:                                               ; preds = %2
  %15 = load i32, ptr %4, align 4, !tbaa !3
  %16 = load ptr, ptr %3, align 8, !tbaa !15
  %17 = getelementptr inbounds nuw %struct.ParseStackOpStruct, ptr %16, i32 0, i32 0
  %18 = load ptr, ptr %17, align 8, !tbaa !17
  %19 = load ptr, ptr %3, align 8, !tbaa !15
  %20 = getelementptr inbounds nuw %struct.ParseStackOpStruct, ptr %19, i32 0, i32 1
  %21 = load i32, ptr %20, align 8, !tbaa !21
  %22 = add nsw i32 %21, 1
  store i32 %22, ptr %20, align 8, !tbaa !21
  %23 = sext i32 %21 to i64
  %24 = getelementptr inbounds i32, ptr %18, i64 %23
  store i32 %15, ptr %24, align 4, !tbaa !3
  br label %25

25:                                               ; preds = %14, %12
  ret void
}

; Function Attrs: nounwind uwtable
define i32 @Parse_StackOpPop(ptr noundef %0) #0 {
  %2 = alloca i32, align 4
  %3 = alloca ptr, align 8
  store ptr %0, ptr %3, align 8, !tbaa !15
  %4 = load ptr, ptr %3, align 8, !tbaa !15
  %5 = getelementptr inbounds nuw %struct.ParseStackOpStruct, ptr %4, i32 0, i32 1
  %6 = load i32, ptr %5, align 8, !tbaa !21
  %7 = icmp eq i32 %6, 0
  br i1 %7, label %8, label %10

8:                                                ; preds = %1
  %9 = call i32 (ptr, ...) @printf(ptr noundef @.str.3)
  store i32 -1, ptr %2, align 4
  br label %21

10:                                               ; preds = %1
  %11 = load ptr, ptr %3, align 8, !tbaa !15
  %12 = getelementptr inbounds nuw %struct.ParseStackOpStruct, ptr %11, i32 0, i32 0
  %13 = load ptr, ptr %12, align 8, !tbaa !17
  %14 = load ptr, ptr %3, align 8, !tbaa !15
  %15 = getelementptr inbounds nuw %struct.ParseStackOpStruct, ptr %14, i32 0, i32 1
  %16 = load i32, ptr %15, align 8, !tbaa !21
  %17 = add nsw i32 %16, -1
  store i32 %17, ptr %15, align 8, !tbaa !21
  %18 = sext i32 %17 to i64
  %19 = getelementptr inbounds i32, ptr %13, i64 %18
  %20 = load i32, ptr %19, align 4, !tbaa !3
  store i32 %20, ptr %2, align 4
  br label %21

21:                                               ; preds = %10, %8
  %22 = load i32, ptr %2, align 4
  ret i32 %22
}

; Function Attrs: nounwind uwtable
define void @Parse_StackOpFree(ptr noundef %0) #0 {
  %2 = alloca ptr, align 8
  store ptr %0, ptr %2, align 8, !tbaa !15
  %3 = load ptr, ptr %2, align 8, !tbaa !15
  %4 = getelementptr inbounds nuw %struct.ParseStackOpStruct, ptr %3, i32 0, i32 0
  %5 = load ptr, ptr %4, align 8, !tbaa !17
  %6 = icmp ne ptr %5, null
  br i1 %6, label %7, label %13

7:                                                ; preds = %1
  %8 = load ptr, ptr %2, align 8, !tbaa !15
  %9 = getelementptr inbounds nuw %struct.ParseStackOpStruct, ptr %8, i32 0, i32 0
  %10 = load ptr, ptr %9, align 8, !tbaa !17
  call void @free(ptr noundef %10) #6
  %11 = load ptr, ptr %2, align 8, !tbaa !15
  %12 = getelementptr inbounds nuw %struct.ParseStackOpStruct, ptr %11, i32 0, i32 0
  store ptr null, ptr %12, align 8, !tbaa !17
  br label %14

13:                                               ; preds = %1
  br label %14

14:                                               ; preds = %13, %7
  %15 = load ptr, ptr %2, align 8, !tbaa !15
  %16 = icmp ne ptr %15, null
  br i1 %16, label %17, label %19

17:                                               ; preds = %14
  %18 = load ptr, ptr %2, align 8, !tbaa !15
  call void @free(ptr noundef %18) #6
  store ptr null, ptr %2, align 8, !tbaa !15
  br label %20

19:                                               ; preds = %14
  br label %20

20:                                               ; preds = %19, %17
  ret void
}


!llvm.module.flags = !{!0, !1, !2}

!0 = !{i32 1, !"wchar_size", i32 4}
!1 = !{i32 8, !"PIC Level", i32 2}
!2 = !{i32 7, !"uwtable", i32 2}
!3 = !{!4, !4, i64 0}
!4 = !{!"int", !5, i64 0}
!5 = !{!"omnipotent char", !6, i64 0}
!6 = !{!"Simple C/C++ TBAA"}
!7 = !{!8, !8, i64 0}
!8 = !{!"p1 _ZTS18ParseStackFnStruct", !9, i64 0}
!9 = !{!"any pointer", !5, i64 0}
!10 = !{!11, !9, i64 0}
!11 = !{!"ParseStackFnStruct", !9, i64 0, !4, i64 8, !4, i64 12}
!12 = !{!11, !4, i64 12}
!13 = !{!11, !4, i64 8}
!14 = !{!9, !9, i64 0}
!15 = !{!16, !16, i64 0}
!16 = !{!"p1 _ZTS18ParseStackOpStruct", !9, i64 0}
!17 = !{!18, !19, i64 0}
!18 = !{!"ParseStackOpStruct", !19, i64 0, !4, i64 8, !4, i64 12}
!19 = !{!"p1 int", !9, i64 0}
!20 = !{!18, !4, i64 12}
!21 = !{!18, !4, i64 8}
